target datalayout = "e-m:e-p270:32:32-p271:32:32-p272:64:64-i64:64-i128:128-f80:128-n8:16:32:64-S128"
target triple = "x86_64-pc-linux-gnu"

; Function Attrs: mustprogress nounwind uwtable
define linkonce_odr void @_ZSt4swapIdENSt9enable_ifIXsr6__and_ISt6__not_ISt15__is_tuple_likeIT_EESt21is_move_constructibleIS3_ESt18is_move_assignableIS3_EEE5valueEvE4typeERS3_SC_(ptr noundef nonnull align 8 dereferenceable(8) %0, ptr noundef nonnull align 8 dereferenceable(8) %1) #0 comdat {
  %3 = alloca ptr, align 8
  %4 = alloca ptr, align 8
  %5 = alloca double, align 8
  store ptr %0, ptr %3, align 8
  store ptr %1, ptr %4, align 8
  %6 = load ptr, ptr %3, align 8
  %7 = load double, ptr %6, align 8
  store double %7, ptr %5, align 8
  %8 = load ptr, ptr %4, align 8
  %9 = load double, ptr %8, align 8
  %10 = load ptr, ptr %3, align 8
  store double %9, ptr %10, align 8
  %11 = load double, ptr %5, align 8
  %12 = load ptr, ptr %4, align 8
  store double %11, ptr %12, align 8
  ret void
}

; Function Attrs: mustprogress nounwind uwtable
define noundef zeroext i1 @_ZN32pxrInternal_v0_24__pxrReserved__17Ts_SolveQuadraticEPKdPdS2_(ptr noundef %0, ptr noundef %1, ptr noundef %2) #0 {
  %4 = alloca i1, align 1
  %5 = alloca ptr, align 8
  %6 = alloca ptr, align 8
  %7 = alloca ptr, align 8
  %8 = alloca double, align 8
  %9 = alloca double, align 8
  %10 = alloca double, align 8
  %11 = alloca double, align 8
  %12 = alloca double, align 8
  %13 = alloca double, align 8
  store ptr %0, ptr %5, align 8
  store ptr %1, ptr %6, align 8
  store ptr %2, ptr %7, align 8
  %14 = load ptr, ptr %5, align 8
  %15 = getelementptr inbounds double, ptr %14, i64 2
  %16 = load double, ptr %15, align 8
  store double %16, ptr %8, align 8
  %17 = load ptr, ptr %5, align 8
  %18 = getelementptr inbounds double, ptr %17, i64 1
  %19 = load double, ptr %18, align 8
  store double %19, ptr %9, align 8
  %20 = load ptr, ptr %5, align 8
  %21 = getelementptr inbounds double, ptr %20, i64 0
  %22 = load double, ptr %21, align 8
  store double %22, ptr %10, align 8
  %23 = load double, ptr %9, align 8
  %24 = load double, ptr %9, align 8
  %25 = load double, ptr %8, align 8
  %26 = fmul double 4.000000e+00, %25
  %27 = load double, ptr %10, align 8
  %28 = fmul double %26, %27
  %29 = fneg double %28
  %30 = call double @llvm.fmuladd.f64(double %23, double %24, double %29)
  store double %30, ptr %11, align 8
  %31 = load double, ptr %11, align 8
  %32 = call double @llvm.fabs.f64(double %31)
  %33 = call double @sqrt(double noundef %32) #4
  store double %33, ptr %13, align 8
  %34 = load double, ptr %8, align 8
  %35 = fcmp oeq double %34, 0.000000e+00
  br i1 %35, label %36, label %49

36:                                               ; preds = %3
  %37 = load double, ptr %9, align 8
  %38 = fcmp oeq double %37, 0.000000e+00
  br i1 %38, label %39, label %42

39:                                               ; preds = %36
  %40 = load ptr, ptr %6, align 8
  store double 0.000000e+00, ptr %40, align 8
  %41 = load ptr, ptr %7, align 8
  store double 0.000000e+00, ptr %41, align 8
  store i1 false, ptr %4, align 1
  br label %96

42:                                               ; preds = %36
  %43 = load double, ptr %10, align 8
  %44 = fneg double %43
  %45 = load double, ptr %9, align 8
  %46 = fdiv double %44, %45
  %47 = load ptr, ptr %6, align 8
  store double %46, ptr %47, align 8
  %48 = load ptr, ptr %7, align 8
  store double %46, ptr %48, align 8
  store i1 true, ptr %4, align 1
  br label %96

49:                                               ; preds = %3
  %50 = load double, ptr %11, align 8
  %51 = fcmp oge double %50, 0.000000e+00
  br i1 %51, label %56, label %52

52:                                               ; preds = %49
  %53 = load double, ptr %13, align 8
  %54 = fptrunc double %53 to float
  %55 = fcmp oeq float %54, 0.000000e+00
  br i1 %55, label %56, label %93

56:                                               ; preds = %52, %49
  %57 = load double, ptr %9, align 8
  %58 = fcmp oge double %57, 0.000000e+00
  br i1 %58, label %59, label %64

59:                                               ; preds = %56
  %60 = load double, ptr %9, align 8
  %61 = load double, ptr %13, align 8
  %62 = fadd double %60, %61
  %63 = fmul double -5.000000e-01, %62
  store double %63, ptr %12, align 8
  br label %69

64:                                               ; preds = %56
  %65 = load double, ptr %9, align 8
  %66 = load double, ptr %13, align 8
  %67 = fsub double %65, %66
  %68 = fmul double -5.000000e-01, %67
  store double %68, ptr %12, align 8
  br label %69

69:                                               ; preds = %64, %59
  %70 = load double, ptr %12, align 8
  %71 = load double, ptr %8, align 8
  %72 = fdiv double %70, %71
  %73 = load ptr, ptr %6, align 8
  store double %72, ptr %73, align 8
  %74 = load double, ptr %12, align 8
  %75 = fcmp une double %74, 0.000000e+00
  br i1 %75, label %76, label %81

76:                                               ; preds = %69
  %77 = load double, ptr %10, align 8
  %78 = load double, ptr %12, align 8
  %79 = fdiv double %77, %78
  %80 = load ptr, ptr %7, align 8
  store double %79, ptr %80, align 8
  br label %83

81:                                               ; preds = %69
  %82 = load ptr, ptr %7, align 8
  store double 0.000000e+00, ptr %82, align 8
  br label %83

83:                                               ; preds = %81, %76
  %84 = load ptr, ptr %6, align 8
  %85 = load double, ptr %84, align 8
  %86 = load ptr, ptr %7, align 8
  %87 = load double, ptr %86, align 8
  %88 = fcmp ogt double %85, %87
  br i1 %88, label %89, label %92

89:                                               ; preds = %83
  %90 = load ptr, ptr %6, align 8
  %91 = load ptr, ptr %7, align 8
  call void @_ZSt4swapIdENSt9enable_ifIXsr6__and_ISt6__not_ISt15__is_tuple_likeIT_EESt21is_move_constructibleIS3_ESt18is_move_assignableIS3_EEE5valueEvE4typeERS3_SC_(ptr noundef nonnull align 8 dereferenceable(8) %90, ptr noundef nonnull align 8 dereferenceable(8) %91) #4
  br label %92

92:                                               ; preds = %89, %83
  store i1 true, ptr %4, align 1
  br label %96

93:                                               ; preds = %52
  %94 = load ptr, ptr %6, align 8
  store double 0.000000e+00, ptr %94, align 8
  %95 = load ptr, ptr %7, align 8
  store double 0.000000e+00, ptr %95, align 8
  store i1 false, ptr %4, align 1
  br label %96

96:                                               ; preds = %93, %92, %42, %39
  %97 = load i1, ptr %4, align 1
  ret i1 %97
}