; Function Attrs: mustprogress nofree norecurse nosync nounwind willreturn memory(argmem: readwrite) uwtable
define noundef zeroext i1 @_ZN32pxrInternal_v0_24__pxrReserved__17Ts_SolveQuadraticEPKdPdS2_(ptr noundef readonly captures(none) %0, ptr noundef captures(none) initializes((0, 8)) %1, ptr noundef writeonly captures(none) initializes((0, 8)) %2) local_unnamed_addr #0 {
  %4 = getelementptr inbounds nuw i8, ptr %0, i64 16
  %5 = load double, ptr %4, align 8
  %6 = getelementptr inbounds nuw i8, ptr %0, i64 8
  %7 = load double, ptr %6, align 8
  %8 = load double, ptr %0, align 8
  %9 = fmul double %5, 4.000000e+00
  %10 = fneg double %8
  %11 = fmul double %9, %10
  %12 = tail call double @llvm.fmuladd.f64(double %7, double %7, double %11)
  %13 = tail call double @llvm.fabs.f64(double %12)
  %sqrt = tail call double @llvm.sqrt.f64(double %13)
  %14 = fcmp oeq double %5, 0.000000e+00
  br i1 %14, label %15, label %19

15:                                               ; preds = %3
  %16 = fcmp oeq double %7, 0.000000e+00
  br i1 %16, label %.sink.split, label %17

17:                                               ; preds = %15
  %18 = fdiv double %10, %7
  br label %.sink.split

19:                                               ; preds = %3
  %20 = fcmp oge double %12, 0.000000e+00
  %21 = fptrunc double %sqrt to float
  %22 = fcmp oeq float %21, 0.000000e+00
  %or.cond = select i1 %20, i1 true, i1 %22
  br i1 %or.cond, label %23, label %.sink.split

23:                                               ; preds = %19
  %24 = fcmp ult double %7, 0.000000e+00
  %25 = fneg double %sqrt
  %.038.in.p = select i1 %24, double %25, double %sqrt
  %.038.in = fadd double %7, %.038.in.p
  %.038 = fmul double %.038.in, -5.000000e-01
  %26 = fdiv double %.038, %5
  store double %26, ptr %1, align 8
  %27 = fcmp une double %.038, 0.000000e+00
  %28 = fdiv double %8, %.038
  %storemerge = select i1 %27, double %28, double 0.000000e+00
  store double %storemerge, ptr %2, align 8
  %29 = load double, ptr %1, align 8
  %30 = fcmp ogt double %29, %storemerge
  br i1 %30, label %.sink.split, label %31

.sink.split:                                      ; preds = %19, %23, %15, %17
  %storemerge.sink = phi double [ %18, %17 ], [ 0.000000e+00, %15 ], [ %storemerge, %23 ], [ 0.000000e+00, %19 ]
  %.sink = phi double [ %18, %17 ], [ 0.000000e+00, %15 ], [ %29, %23 ], [ 0.000000e+00, %19 ]
  %.0.ph = phi i1 [ true, %17 ], [ false, %15 ], [ true, %23 ], [ false, %19 ]
  store double %storemerge.sink, ptr %1, align 8
  store double %.sink, ptr %2, align 8
  br label %31

31:                                               ; preds = %.sink.split, %23
  %.0 = phi i1 [ true, %23 ], [ %.0.ph, %.sink.split ]
  ret i1 %.0
}